; Function Attrs: nounwind uwtable
define dso_local ptr @scanner_init(ptr noundef readonly captures(none) %0, ptr noundef %1, ptr noundef %2, ptr noundef %3) local_unnamed_addr #0 {
  %5 = tail call i64 @strlen(ptr noundef nonnull dereferenceable(1) %0) #25
  %6 = tail call ptr @palloc(i64 noundef 160) #22
  %7 = icmp eq ptr %6, null
  br i1 %7, label %8, label %12

8:                                                ; preds = %4
  %9 = tail call ptr @__errno_location() #26
  store i32 12, ptr %9, align 4
  %10 = tail call zeroext i1 @errstart_cold(i32 noundef 21, ptr noundef null) #24
  tail call void @llvm.assume(i1 %10)
  %11 = tail call i32 (ptr, ...) @errmsg_internal(ptr noundef nonnull @.str.38) #22
  tail call void @errfinish(ptr noundef nonnull @.str.7, i32 noundef 1258, ptr noundef nonnull @__func__.scanner_init) #22
  unreachable

12:                                               ; preds = %4
  %13 = getelementptr inbounds nuw i8, ptr %6, i64 8
  tail call void @llvm.memset.p0.i64(ptr noundef nonnull align 1 dereferenceable(152) %13, i8 0, i64 152, i1 false)
  store ptr %1, ptr %6, align 8
  %14 = getelementptr inbounds nuw i8, ptr %1, i64 16
  store ptr %2, ptr %14, align 8
  %15 = getelementptr inbounds nuw i8, ptr %1, i64 24
  store ptr %3, ptr %15, align 8
  %16 = load i32, ptr @backslash_quote, align 4
  %17 = getelementptr inbounds nuw i8, ptr %1, i64 32
  store i32 %16, ptr %17, align 8
  %18 = load i8, ptr @escape_string_warning, align 1, !range !6, !noundef !7
  %19 = getelementptr inbounds nuw i8, ptr %1, i64 36
  store i8 %18, ptr %19, align 4
  %20 = load i8, ptr @standard_conforming_strings, align 1, !range !6, !noundef !7
  %21 = getelementptr inbounds nuw i8, ptr %1, i64 37
  store i8 %20, ptr %21, align 1
  %22 = add i64 %5, 2
  %23 = tail call ptr @palloc(i64 noundef %22) #22
  store ptr %23, ptr %1, align 8
  %24 = getelementptr inbounds nuw i8, ptr %1, i64 8
  store i64 %5, ptr %24, align 8
  tail call void @llvm.memcpy.p0.p0.i64(ptr align 1 %23, ptr nonnull align 1 %0, i64 %5, i1 false)
  %25 = load ptr, ptr %1, align 8
  %26 = getelementptr i8, ptr %25, i64 %5
  %27 = getelementptr i8, ptr %26, i64 1
  store i8 0, ptr %27, align 1
  %28 = load ptr, ptr %1, align 8
  %29 = getelementptr inbounds nuw i8, ptr %28, i64 %5
  store i8 0, ptr %29, align 1
  %30 = load ptr, ptr %1, align 8
  %31 = icmp ugt i64 %5, -3
  br i1 %31, label %core_yy_scan_buffer.exit, label %32

32:                                               ; preds = %12
  %33 = getelementptr inbounds nuw i8, ptr %30, i64 %5
  %34 = load i8, ptr %33, align 1
  %.not.i = icmp eq i8 %34, 0
  br i1 %.not.i, label %35, label %core_yy_scan_buffer.exit

35:                                               ; preds = %32
  %36 = getelementptr i8, ptr %30, i64 %22
  %37 = getelementptr i8, ptr %36, i64 -1
  %38 = load i8, ptr %37, align 1
  %.not26.i = icmp eq i8 %38, 0
  br i1 %.not26.i, label %39, label %core_yy_scan_buffer.exit

39:                                               ; preds = %35
  %40 = tail call ptr @palloc(i64 noundef 64) #22
  %.not27.i = icmp eq ptr %40, null
  br i1 %.not27.i, label %41, label %42

41:                                               ; preds = %39
  tail call fastcc void @yy_fatal_error(ptr noundef nonnull @.str.31) #23
  unreachable

42:                                               ; preds = %39
  %43 = trunc i64 %5 to i32
  %44 = getelementptr inbounds nuw i8, ptr %40, i64 24
  store i32 %43, ptr %44, align 8
  %45 = getelementptr inbounds nuw i8, ptr %40, i64 8
  store ptr %30, ptr %45, align 8
  %46 = getelementptr inbounds nuw i8, ptr %40, i64 16
  store ptr %30, ptr %46, align 8
  %47 = getelementptr inbounds nuw i8, ptr %40, i64 32
  store i32 0, ptr %47, align 8
  store ptr null, ptr %40, align 8
  %48 = getelementptr inbounds nuw i8, ptr %40, i64 28
  store i32 %43, ptr %48, align 4
  %49 = getelementptr inbounds nuw i8, ptr %40, i64 36
  store i32 0, ptr %49, align 4
  %50 = getelementptr inbounds nuw i8, ptr %40, i64 40
  store i32 1, ptr %50, align 8
  %51 = getelementptr inbounds nuw i8, ptr %40, i64 52
  store i32 0, ptr %51, align 4
  %52 = getelementptr inbounds nuw i8, ptr %40, i64 56
  store i32 0, ptr %52, align 8
  tail call void @core_yy_switch_to_buffer(ptr noundef nonnull %40, ptr noundef nonnull %6)
  br label %core_yy_scan_buffer.exit

core_yy_scan_buffer.exit:                         ; preds = %12, %32, %35, %42
  %53 = getelementptr inbounds nuw i8, ptr %1, i64 52
  store i32 1024, ptr %53, align 4
  %54 = tail call ptr @palloc(i64 noundef 1024) #22
  %55 = getelementptr inbounds nuw i8, ptr %1, i64 40
  store ptr %54, ptr %55, align 8
  %56 = getelementptr inbounds nuw i8, ptr %1, i64 48
  store i32 0, ptr %56, align 8
  ret ptr %6
}